target datalayout = "e-m:e-p270:32:32-p271:32:32-p272:64:64-i64:64-i128:128-f80:128-n8:16:32:64-S128"
target triple = "x86_64-pc-linux-gnu"

%struct.expert_field = type { i32, i32 }
%struct.MessageHeader = type { [4 x i8], %struct.Version, i8, i8, i32, i32, i32, ptr }
%struct.Version = type { i8, i8 }

@hf_Tango_Device_5_set_attribute_config_5_new_conf_loop = internal global i32 0, align 4
@ei_tango_unknown_giop_msg = internal global %struct.expert_field zeroinitializer, align 4
@ei_tango_unknown_exception = internal global %struct.expert_field zeroinitializer, align 4
@ett_giop_struct = internal global i32 0, align 4
@ett_giop_sequence = internal global i32 0, align 4
@ett_giop_union = internal global i32 0, align 4
@boundary = internal global i32 12, align 4
@.str.770 = private unnamed_addr constant [22 x i8] c"union Tango_ClntIdent\00", align 1
@.str.771 = private unnamed_addr constant [21 x i8] c"Unknown exception %d\00", align 1
@.str.772 = private unnamed_addr constant [24 x i8] c"Unknown GIOP message %d\00", align 1
@.str.819 = private unnamed_addr constant [56 x i8] c"sequence Tango_Device_5_set_attribute_config_5_new_conf\00", align 1
@.str.820 = private unnamed_addr constant [31 x i8] c"struct Tango_AttributeConfig_5\00", align 1

; Function Attrs: null_pointer_is_valid sspstrong uwtable
define internal void @decode_Tango_Device_5_set_attribute_config_5(ptr noundef %0, ptr noundef %1, ptr noundef %2, ptr noundef %3, ptr noundef %4, ptr noundef %5, ptr noundef %6, i1 noundef zeroext %7) #0 {
  %9 = alloca ptr, align 8
  %10 = alloca ptr, align 8
  %11 = alloca ptr, align 8
  %12 = alloca ptr, align 8
  %13 = alloca ptr, align 8
  %14 = alloca ptr, align 8
  %15 = alloca ptr, align 8
  %16 = alloca i8, align 1
  %17 = alloca i32, align 4
  %18 = alloca i32, align 4
  %19 = alloca ptr, align 8
  %20 = alloca ptr, align 8
  %21 = alloca ptr, align 8
  store ptr %0, ptr %9, align 8
  store ptr %1, ptr %10, align 8
  store ptr %2, ptr %11, align 8
  store ptr %3, ptr %12, align 8
  store ptr %4, ptr %13, align 8
  store ptr %5, ptr %14, align 8
  store ptr %6, ptr %15, align 8
  %22 = zext i1 %7 to i8
  store i8 %22, ptr %16, align 1
  call void @llvm.lifetime.start.p0(i64 4, ptr %17) #6
  call void @llvm.lifetime.start.p0(i64 4, ptr %18) #6
  %23 = load ptr, ptr %14, align 8
  %24 = getelementptr inbounds nuw %struct.MessageHeader, ptr %23, i32 0, i32 3
  %25 = load i8, ptr %24, align 1
  %26 = zext i8 %25 to i32
  switch i32 %26, label %100 [
    i32 0, label %27
    i32 1, label %88
  ]

27:                                               ; preds = %8
  %28 = load ptr, ptr %9, align 8
  %29 = load ptr, ptr %13, align 8
  %30 = load i8, ptr %16, align 1, !range !6, !noundef !7
  %31 = trunc i8 %30 to i1
  %32 = load i32, ptr @boundary, align 4
  %33 = call i32 @get_CDR_ulong(ptr noundef %28, ptr noundef %29, i1 noundef zeroext %31, i32 noundef %32)
  store i32 %33, ptr %17, align 4
  %34 = load ptr, ptr %11, align 8
  %35 = load i32, ptr @hf_Tango_Device_5_set_attribute_config_5_new_conf_loop, align 4
  %36 = load ptr, ptr %9, align 8
  %37 = load ptr, ptr %13, align 8
  %38 = load i32, ptr %37, align 4
  %39 = sub i32 %38, 4
  %40 = load i32, ptr %17, align 4
  %41 = call ptr @proto_tree_add_uint(ptr noundef %34, i32 noundef %35, ptr noundef %36, i32 noundef %39, i32 noundef 4, i32 noundef %40)
  call void @llvm.lifetime.start.p0(i64 8, ptr %19) #6
  %42 = load ptr, ptr %11, align 8
  store ptr %42, ptr %19, align 8
  %43 = load ptr, ptr %11, align 8
  %44 = load ptr, ptr %9, align 8
  %45 = load ptr, ptr %13, align 8
  %46 = load i32, ptr %45, align 4
  %47 = load i32, ptr @ett_giop_sequence, align 4
  %48 = call ptr @proto_tree_add_subtree(ptr noundef %43, ptr noundef %44, i32 noundef %46, i32 noundef -1, i32 noundef %47, ptr noundef null, ptr noundef @.str.819)
  store ptr %48, ptr %11, align 8
  store i32 0, ptr %18, align 4
  br label %49

49:                                               ; preds = %69, %27
  %50 = load i32, ptr %18, align 4
  %51 = load i32, ptr %17, align 4
  %52 = icmp ult i32 %50, %51
  br i1 %52, label %53, label %72

53:                                               ; preds = %49
  call void @llvm.lifetime.start.p0(i64 8, ptr %20) #6
  %54 = load ptr, ptr %11, align 8
  %55 = load ptr, ptr %9, align 8
  %56 = load ptr, ptr %13, align 8
  %57 = load i32, ptr %56, align 4
  %58 = load i32, ptr @ett_giop_struct, align 4
  %59 = call ptr @proto_tree_add_subtree(ptr noundef %54, ptr noundef %55, i32 noundef %57, i32 noundef -1, i32 noundef %58, ptr noundef null, ptr noundef @.str.820)
  store ptr %59, ptr %20, align 8
  %60 = load ptr, ptr %9, align 8
  %61 = load ptr, ptr %10, align 8
  %62 = load ptr, ptr %20, align 8
  %63 = load ptr, ptr %12, align 8
  %64 = load ptr, ptr %13, align 8
  %65 = load ptr, ptr %14, align 8
  %66 = load ptr, ptr %15, align 8
  %67 = load i8, ptr %16, align 1, !range !6, !noundef !7
  %68 = trunc i8 %67 to i1
  call void @decode_Tango_AttributeConfig_5_st(ptr noundef %60, ptr noundef %61, ptr noundef %62, ptr noundef %63, ptr noundef %64, ptr noundef %65, ptr noundef %66, i1 noundef zeroext %68)
  call void @llvm.lifetime.end.p0(i64 8, ptr %20) #6
  br label %69

69:                                               ; preds = %53
  %70 = load i32, ptr %18, align 4
  %71 = add i32 %70, 1
  store i32 %71, ptr %18, align 4
  br label %49, !llvm.loop !17

72:                                               ; preds = %49
  %73 = load ptr, ptr %19, align 8
  store ptr %73, ptr %11, align 8
  call void @llvm.lifetime.end.p0(i64 8, ptr %19) #6
  call void @llvm.lifetime.start.p0(i64 8, ptr %21) #6
  %74 = load ptr, ptr %11, align 8
  %75 = load ptr, ptr %9, align 8
  %76 = load ptr, ptr %13, align 8
  %77 = load i32, ptr %76, align 4
  %78 = load i32, ptr @ett_giop_union, align 4
  %79 = call ptr @proto_tree_add_subtree(ptr noundef %74, ptr noundef %75, i32 noundef %77, i32 noundef -1, i32 noundef %78, ptr noundef null, ptr noundef @.str.770)
  store ptr %79, ptr %21, align 8
  %80 = load ptr, ptr %9, align 8
  %81 = load ptr, ptr %10, align 8
  %82 = load ptr, ptr %21, align 8
  %83 = load ptr, ptr %13, align 8
  %84 = load ptr, ptr %14, align 8
  %85 = load ptr, ptr %15, align 8
  %86 = load i8, ptr %16, align 1, !range !6, !noundef !7
  %87 = trunc i8 %86 to i1
  call void @decode_Tango_ClntIdent_un(ptr noundef %80, ptr noundef %81, ptr noundef %82, ptr noundef %83, ptr noundef %84, ptr noundef %85, i1 noundef zeroext %87)
  call void @llvm.lifetime.end.p0(i64 8, ptr %21) #6
  br label %108

88:                                               ; preds = %8
  %89 = load ptr, ptr %14, align 8
  %90 = getelementptr inbounds nuw %struct.MessageHeader, ptr %89, i32 0, i32 6
  %91 = load i32, ptr %90, align 8
  switch i32 %91, label %92 [
    i32 0, label %99
    i32 1, label %99
  ]

92:                                               ; preds = %88
  %93 = load ptr, ptr %10, align 8
  %94 = load ptr, ptr %12, align 8
  %95 = load ptr, ptr %14, align 8
  %96 = getelementptr inbounds nuw %struct.MessageHeader, ptr %95, i32 0, i32 6
  %97 = load i32, ptr %96, align 8
  %98 = call ptr (ptr, ptr, ptr, ptr, ...) @expert_add_info_format(ptr noundef %93, ptr noundef %94, ptr noundef @ei_tango_unknown_exception, ptr noundef @.str.771, i32 noundef %97)
  br label %99

99:                                               ; preds = %92, %88, %88
  br label %108

100:                                              ; preds = %8
  %101 = load ptr, ptr %10, align 8
  %102 = load ptr, ptr %12, align 8
  %103 = load ptr, ptr %14, align 8
  %104 = getelementptr inbounds nuw %struct.MessageHeader, ptr %103, i32 0, i32 3
  %105 = load i8, ptr %104, align 1
  %106 = zext i8 %105 to i32
  %107 = call ptr (ptr, ptr, ptr, ptr, ...) @expert_add_info_format(ptr noundef %101, ptr noundef %102, ptr noundef @ei_tango_unknown_giop_msg, ptr noundef @.str.772, i32 noundef %106)
  br label %108

108:                                              ; preds = %100, %99, %72
  call void @llvm.lifetime.end.p0(i64 4, ptr %18) #6
  call void @llvm.lifetime.end.p0(i64 4, ptr %17) #6
  ret void
}